target datalayout = "e-m:e-p270:32:32-p271:32:32-p272:64:64-i64:64-i128:128-f80:128-n8:16:32:64-S128"
target triple = "x86_64-pc-linux-gnu"

%struct.jit_State = type { %struct.GCtrace, ptr, ptr, ptr, ptr, ptr, ptr, i32, i32, i32, i8, i8, %struct.IRType1, i8, %struct.FoldState, ptr, i32, i32, i32, i32, i32, i32, i32, [1 x i32], [5 x %union.TValue], [3 x %union.TValue], ptr, i32, i32, i32, i32, ptr, ptr, i32, i32, i8, ptr, i32, i32, i16, [101 x i16], [258 x i32], [15 x i32], [16 x ptr], [64 x %struct.HotPenalty], i32, [16 x %struct.BPropEntry], i32, %struct.ScEvEntry, ptr, i32, i32, i32, ptr, i32, i32, ptr, ptr, ptr, i64, i64, %union.TValue, ptr, i32, i32 }
%struct.GCtrace = type { %struct.GCRef, i8, i8, i16, i32, i32, %struct.GCRef, ptr, i32, i32, ptr, ptr, %struct.GCRef, %struct.MRef, i32, i32, ptr, i32, i16, i16, i16, i16, i16, i16, i16, i8, i8, i8, i8 }
%struct.GCRef = type { i64 }
%struct.MRef = type { i64 }
%struct.IRType1 = type { i8 }
%struct.FoldState = type { %union.IRIns, [2 x %union.IRIns], [2 x %union.IRIns] }
%union.IRIns = type { %struct.GCRef }
%struct.HotPenalty = type { %struct.MRef, i16, i16 }
%struct.BPropEntry = type { i16, i16, i32 }
%struct.ScEvEntry = type { %struct.MRef, i16, i16, i16, i16, %struct.IRType1, i8 }
%union.TValue = type { i64 }
%struct.anon.1 = type { i16, i16, i16, i16 }
%struct.RecordIndex = type { %union.TValue, %union.TValue, %union.TValue, %union.TValue, ptr, ptr, i32, i32, i32, i32, i32, i32 }
%struct.GCtab = type { %struct.GCRef, i8, i8, i8, i8, %struct.MRef, %struct.GCRef, %struct.GCRef, %struct.MRef, i32, i32, %struct.MRef }
%struct.Node = type { %union.TValue, %union.TValue, %struct.MRef }
%struct.anon.0 = type { i32, i32 }

; Function Attrs: alwaysinline nounwind uwtable
define internal i32 @itype2irt(ptr noundef %0) #3 {
  %2 = alloca i32, align 4
  %3 = alloca ptr, align 8
  store ptr %0, ptr %3, align 8, !tbaa !11
  %4 = load ptr, ptr %3, align 8, !tbaa !11
  %5 = load i64, ptr %4, align 8, !tbaa !15
  %6 = ashr i64 %5, 47
  %7 = trunc i64 %6 to i32
  %8 = icmp ult i32 %7, -14
  br i1 %8, label %9, label %10

9:                                                ; preds = %1
  store i32 14, ptr %2, align 4
  br label %16

10:                                               ; preds = %1
  %11 = load ptr, ptr %3, align 8, !tbaa !11
  %12 = load i64, ptr %11, align 8, !tbaa !15
  %13 = ashr i64 %12, 47
  %14 = trunc i64 %13 to i32
  %15 = xor i32 %14, -1
  store i32 %15, ptr %2, align 4
  br label %16

16:                                               ; preds = %10, %9
  %17 = load i32, ptr %2, align 4
  ret i32 %17
}

; Function Attrs: nounwind uwtable
define hidden i32 @lj_record_vload(ptr noundef %0, i32 noundef %1, i32 noundef %2, i32 noundef %3) #0 {
  %5 = alloca ptr, align 8
  %6 = alloca i32, align 4
  %7 = alloca i32, align 4
  %8 = alloca i32, align 4
  %9 = alloca i32, align 4
  store ptr %0, ptr %5, align 8, !tbaa !4
  store i32 %1, ptr %6, align 4, !tbaa !9
  store i32 %2, ptr %7, align 4, !tbaa !9
  store i32 %3, ptr %8, align 4, !tbaa !9
  call void @llvm.lifetime.start.p0(i64 4, ptr %9) #9
  %10 = load ptr, ptr %5, align 8, !tbaa !4
  %11 = load i32, ptr %8, align 4, !tbaa !9
  %12 = or i32 128, %11
  %13 = or i32 18432, %12
  %14 = trunc i32 %13 to i16
  %15 = load i32, ptr %6, align 4, !tbaa !9
  %16 = trunc i32 %15 to i16
  %17 = load i32, ptr %7, align 4, !tbaa !9
  %18 = trunc i32 %17 to i16
  call void @lj_ir_set_(ptr noundef %10, i16 noundef zeroext %14, i16 noundef zeroext %16, i16 noundef zeroext %18)
  %19 = load ptr, ptr %5, align 8, !tbaa !4
  %20 = call i32 @lj_opt_fold(ptr noundef %19)
  store i32 %20, ptr %9, align 4, !tbaa !9
  %21 = load i32, ptr %8, align 4, !tbaa !9
  %22 = icmp ule i32 %21, 2
  br i1 %22, label %23, label %29

23:                                               ; preds = %4
  %24 = load i32, ptr %8, align 4, !tbaa !9
  %25 = sub i32 32767, %24
  %26 = load i32, ptr %8, align 4, !tbaa !9
  %27 = shl i32 %26, 24
  %28 = add i32 %25, %27
  store i32 %28, ptr %9, align 4, !tbaa !9
  br label %29

29:                                               ; preds = %23, %4
  %30 = load i32, ptr %9, align 4, !tbaa !9
  call void @llvm.lifetime.end.p0(i64 4, ptr %9) #9
  ret i32 %30
}

; Function Attrs: alwaysinline nounwind uwtable
define internal void @lj_ir_set_(ptr noundef %0, i16 noundef zeroext %1, i16 noundef zeroext %2, i16 noundef zeroext %3) #3 {
  %5 = alloca ptr, align 8
  %6 = alloca i16, align 2
  %7 = alloca i16, align 2
  %8 = alloca i16, align 2
  store ptr %0, ptr %5, align 8, !tbaa !4
  store i16 %1, ptr %6, align 2, !tbaa !13
  store i16 %2, ptr %7, align 2, !tbaa !13
  store i16 %3, ptr %8, align 2, !tbaa !13
  %9 = load i16, ptr %6, align 2, !tbaa !13
  %10 = load ptr, ptr %5, align 8, !tbaa !4
  %11 = getelementptr inbounds nuw %struct.jit_State, ptr %10, i32 0, i32 14
  %12 = getelementptr inbounds nuw %struct.FoldState, ptr %11, i32 0, i32 0
  %13 = getelementptr inbounds nuw %struct.anon.1, ptr %12, i32 0, i32 2
  store i16 %9, ptr %13, align 4, !tbaa !15
  %14 = load i16, ptr %7, align 2, !tbaa !13
  %15 = load ptr, ptr %5, align 8, !tbaa !4
  %16 = getelementptr inbounds nuw %struct.jit_State, ptr %15, i32 0, i32 14
  %17 = getelementptr inbounds nuw %struct.FoldState, ptr %16, i32 0, i32 0
  %18 = getelementptr inbounds nuw %struct.anon.1, ptr %17, i32 0, i32 0
  store i16 %14, ptr %18, align 8, !tbaa !15
  %19 = load i16, ptr %8, align 2, !tbaa !13
  %20 = load ptr, ptr %5, align 8, !tbaa !4
  %21 = getelementptr inbounds nuw %struct.jit_State, ptr %20, i32 0, i32 14
  %22 = getelementptr inbounds nuw %struct.FoldState, ptr %21, i32 0, i32 0
  %23 = getelementptr inbounds nuw %struct.anon.1, ptr %22, i32 0, i32 1
  store i16 %19, ptr %23, align 2, !tbaa !15
  ret void
}

; Function Attrs: nounwind uwtable
define internal i32 @rec_next_types(ptr noundef %0, i32 noundef %1) #0 {
  %3 = alloca i32, align 4
  %4 = alloca ptr, align 8
  %5 = alloca i32, align 4
  %6 = alloca ptr, align 8
  %7 = alloca i32, align 4
  %8 = alloca ptr, align 8
  store ptr %0, ptr %4, align 8, !tbaa !92
  store i32 %1, ptr %5, align 4, !tbaa !9
  br label %9

9:                                                ; preds = %43, %2
  %10 = load i32, ptr %5, align 4, !tbaa !9
  %11 = load ptr, ptr %4, align 8, !tbaa !92
  %12 = getelementptr inbounds nuw %struct.GCtab, ptr %11, i32 0, i32 9
  %13 = load i32, ptr %12, align 8, !tbaa !109
  %14 = icmp ult i32 %10, %13
  br i1 %14, label %15, label %46

15:                                               ; preds = %9
  call void @llvm.lifetime.start.p0(i64 8, ptr %6) #9
  %16 = load ptr, ptr %4, align 8, !tbaa !92
  %17 = getelementptr inbounds nuw %struct.GCtab, ptr %16, i32 0, i32 5
  %18 = getelementptr inbounds nuw %struct.MRef, ptr %17, i32 0, i32 0
  %19 = load i64, ptr %18, align 8, !tbaa !115
  %20 = inttoptr i64 %19 to ptr
  %21 = load i32, ptr %5, align 4, !tbaa !9
  %22 = zext i32 %21 to i64
  %23 = getelementptr inbounds nuw %union.TValue, ptr %20, i64 %22
  store ptr %23, ptr %6, align 8, !tbaa !11
  %24 = load ptr, ptr %6, align 8, !tbaa !11
  %25 = load i64, ptr %24, align 8, !tbaa !15
  %26 = icmp eq i64 %25, -1
  %27 = xor i1 %26, true
  %28 = xor i1 %27, true
  %29 = xor i1 %28, true
  %30 = zext i1 %29 to i32
  %31 = sext i32 %30 to i64
  %32 = call i64 @llvm.expect.i64(i64 %31, i64 1)
  %33 = icmp ne i64 %32, 0
  br i1 %33, label %34, label %39

34:                                               ; preds = %15
  %35 = load ptr, ptr %6, align 8, !tbaa !11
  %36 = call i32 @itype2irt(ptr noundef %35)
  %37 = shl i32 %36, 8
  %38 = add i32 14, %37
  store i32 %38, ptr %3, align 4
  store i32 1, ptr %7, align 4
  br label %40

39:                                               ; preds = %15
  store i32 0, ptr %7, align 4
  br label %40

40:                                               ; preds = %39, %34
  call void @llvm.lifetime.end.p0(i64 8, ptr %6) #9
  %41 = load i32, ptr %7, align 4
  switch i32 %41, label %90 [
    i32 0, label %42
    i32 1, label %88
  ]

42:                                               ; preds = %40
  br label %43

43:                                               ; preds = %42
  %44 = load i32, ptr %5, align 4, !tbaa !9
  %45 = add i32 %44, 1
  store i32 %45, ptr %5, align 4, !tbaa !9
  br label %9, !llvm.loop !116

46:                                               ; preds = %9
  %47 = load ptr, ptr %4, align 8, !tbaa !92
  %48 = getelementptr inbounds nuw %struct.GCtab, ptr %47, i32 0, i32 9
  %49 = load i32, ptr %48, align 8, !tbaa !109
  %50 = load i32, ptr %5, align 4, !tbaa !9
  %51 = sub i32 %50, %49
  store i32 %51, ptr %5, align 4, !tbaa !9
  br label %52

52:                                               ; preds = %84, %46
  %53 = load i32, ptr %5, align 4, !tbaa !9
  %54 = load ptr, ptr %4, align 8, !tbaa !92
  %55 = getelementptr inbounds nuw %struct.GCtab, ptr %54, i32 0, i32 10
  %56 = load i32, ptr %55, align 4, !tbaa !111
  %57 = icmp ule i32 %53, %56
  br i1 %57, label %58, label %87

58:                                               ; preds = %52
  call void @llvm.lifetime.start.p0(i64 8, ptr %8) #9
  %59 = load ptr, ptr %4, align 8, !tbaa !92
  %60 = getelementptr inbounds nuw %struct.GCtab, ptr %59, i32 0, i32 8
  %61 = getelementptr inbounds nuw %struct.MRef, ptr %60, i32 0, i32 0
  %62 = load i64, ptr %61, align 8, !tbaa !112
  %63 = inttoptr i64 %62 to ptr
  %64 = load i32, ptr %5, align 4, !tbaa !9
  %65 = zext i32 %64 to i64
  %66 = getelementptr inbounds nuw %struct.Node, ptr %63, i64 %65
  store ptr %66, ptr %8, align 8, !tbaa !117
  %67 = load ptr, ptr %8, align 8, !tbaa !117
  %68 = getelementptr inbounds nuw %struct.Node, ptr %67, i32 0, i32 0
  %69 = load i64, ptr %68, align 8, !tbaa !15
  %70 = icmp eq i64 %69, -1
  br i1 %70, label %80, label %71

71:                                               ; preds = %58
  %72 = load ptr, ptr %8, align 8, !tbaa !117
  %73 = getelementptr inbounds nuw %struct.Node, ptr %72, i32 0, i32 1
  %74 = call i32 @itype2irt(ptr noundef %73)
  %75 = load ptr, ptr %8, align 8, !tbaa !117
  %76 = getelementptr inbounds nuw %struct.Node, ptr %75, i32 0, i32 0
  %77 = call i32 @itype2irt(ptr noundef %76)
  %78 = shl i32 %77, 8
  %79 = add i32 %74, %78
  store i32 %79, ptr %3, align 4
  store i32 1, ptr %7, align 4
  br label %81

80:                                               ; preds = %58
  store i32 0, ptr %7, align 4
  br label %81

81:                                               ; preds = %80, %71
  call void @llvm.lifetime.end.p0(i64 8, ptr %8) #9
  %82 = load i32, ptr %7, align 4
  switch i32 %82, label %90 [
    i32 0, label %83
    i32 1, label %88
  ]

83:                                               ; preds = %81
  br label %84

84:                                               ; preds = %83
  %85 = load i32, ptr %5, align 4, !tbaa !9
  %86 = add i32 %85, 1
  store i32 %86, ptr %5, align 4, !tbaa !9
  br label %52, !llvm.loop !119

87:                                               ; preds = %52
  store i32 0, ptr %3, align 4
  br label %88

88:                                               ; preds = %87, %81, %40
  %89 = load i32, ptr %3, align 4
  ret i32 %89

90:                                               ; preds = %81, %40
  unreachable
}

; Function Attrs: nounwind uwtable
define hidden i32 @lj_record_next(ptr noundef %0, ptr noundef %1) #0 {
  %3 = alloca i32, align 4
  %4 = alloca ptr, align 8
  %5 = alloca ptr, align 8
  %6 = alloca i32, align 4
  %7 = alloca i32, align 4
  %8 = alloca i32, align 4
  %9 = alloca i32, align 4
  %10 = alloca i32, align 4
  %11 = alloca i32, align 4
  store ptr %0, ptr %4, align 8, !tbaa !4
  store ptr %1, ptr %5, align 8, !tbaa !90
  call void @llvm.lifetime.start.p0(i64 4, ptr %6) #9
  call void @llvm.lifetime.start.p0(i64 4, ptr %7) #9
  call void @llvm.lifetime.start.p0(i64 4, ptr %8) #9
  call void @llvm.lifetime.start.p0(i64 4, ptr %9) #9
  %12 = load ptr, ptr %5, align 8, !tbaa !90
  %13 = getelementptr inbounds nuw %struct.RecordIndex, ptr %12, i32 0, i32 0
  %14 = getelementptr inbounds nuw %struct.GCRef, ptr %13, i32 0, i32 0
  %15 = load i64, ptr %14, align 8, !tbaa !15
  %16 = and i64 %15, 140737488355327
  %17 = inttoptr i64 %16 to ptr
  %18 = load ptr, ptr %5, align 8, !tbaa !90
  %19 = getelementptr inbounds nuw %struct.RecordIndex, ptr %18, i32 0, i32 1
  %20 = getelementptr inbounds nuw %struct.anon.0, ptr %19, i32 0, i32 0
  %21 = load i32, ptr %20, align 8, !tbaa !15
  %22 = call i32 @rec_next_types(ptr noundef %17, i32 noundef %21)
  store i32 %22, ptr %6, align 4, !tbaa !9
  %23 = load i32, ptr %6, align 4, !tbaa !9
  %24 = and i32 %23, 255
  store i32 %24, ptr %7, align 4, !tbaa !9
  %25 = load i32, ptr %6, align 4, !tbaa !9
  %26 = lshr i32 %25, 8
  store i32 %26, ptr %8, align 4, !tbaa !9
  %27 = load ptr, ptr %4, align 8, !tbaa !4
  %28 = load ptr, ptr %5, align 8, !tbaa !90
  %29 = getelementptr inbounds nuw %struct.RecordIndex, ptr %28, i32 0, i32 6
  %30 = load i32, ptr %29, align 8, !tbaa !56
  %31 = load ptr, ptr %5, align 8, !tbaa !90
  %32 = getelementptr inbounds nuw %struct.RecordIndex, ptr %31, i32 0, i32 7
  %33 = load i32, ptr %32, align 4, !tbaa !98
  %34 = call i32 (ptr, i32, ...) @lj_ir_call(ptr noundef %27, i32 noundef 37, i32 noundef %30, i32 noundef %33)
  store i32 %34, ptr %9, align 4, !tbaa !9
  %35 = load ptr, ptr %5, align 8, !tbaa !90
  %36 = getelementptr inbounds nuw %struct.RecordIndex, ptr %35, i32 0, i32 10
  %37 = load i32, ptr %36, align 8, !tbaa !59
  %38 = icmp ne i32 %37, 0
  br i1 %38, label %42, label %39

39:                                               ; preds = %2
  %40 = load i32, ptr %7, align 4, !tbaa !9
  %41 = icmp eq i32 %40, 0
  br i1 %41, label %42, label %67

42:                                               ; preds = %39, %2
  call void @llvm.lifetime.start.p0(i64 4, ptr %10) #9
  %43 = load ptr, ptr %4, align 8, !tbaa !4
  %44 = load i32, ptr %9, align 4, !tbaa !9
  %45 = trunc i32 %44 to i16
  %46 = load i32, ptr %9, align 4, !tbaa !9
  %47 = trunc i32 %46 to i16
  call void @lj_ir_set_(ptr noundef %43, i16 noundef zeroext 4115, i16 noundef zeroext %45, i16 noundef zeroext %47)
  %48 = load ptr, ptr %4, align 8, !tbaa !4
  %49 = call i32 @lj_opt_fold(ptr noundef %48)
  store i32 %49, ptr %10, align 4, !tbaa !9
  %50 = load ptr, ptr %5, align 8, !tbaa !90
  %51 = getelementptr inbounds nuw %struct.RecordIndex, ptr %50, i32 0, i32 10
  %52 = load i32, ptr %51, align 8, !tbaa !59
  %53 = icmp ne i32 %52, 0
  br i1 %53, label %63, label %54

54:                                               ; preds = %42
  %55 = load ptr, ptr %4, align 8, !tbaa !4
  %56 = load i32, ptr %10, align 4, !tbaa !9
  %57 = trunc i32 %56 to i16
  %58 = load ptr, ptr %4, align 8, !tbaa !4
  %59 = call i32 @lj_ir_kint(ptr noundef %58, i32 noundef -1)
  %60 = trunc i32 %59 to i16
  call void @lj_ir_set_(ptr noundef %55, i16 noundef zeroext 2451, i16 noundef zeroext %57, i16 noundef zeroext %60)
  %61 = load ptr, ptr %4, align 8, !tbaa !4
  %62 = call i32 @lj_opt_fold(ptr noundef %61)
  br label %63

63:                                               ; preds = %54, %42
  %64 = load i32, ptr %10, align 4, !tbaa !9
  %65 = load ptr, ptr %5, align 8, !tbaa !90
  %66 = getelementptr inbounds nuw %struct.RecordIndex, ptr %65, i32 0, i32 10
  store i32 %64, ptr %66, align 8, !tbaa !59
  call void @llvm.lifetime.end.p0(i64 4, ptr %10) #9
  br label %67

67:                                               ; preds = %63, %39
  %68 = load ptr, ptr %4, align 8, !tbaa !4
  %69 = load i32, ptr %9, align 4, !tbaa !9
  %70 = load i32, ptr %7, align 4, !tbaa !9
  %71 = call i32 @lj_record_vload(ptr noundef %68, i32 noundef %69, i32 noundef 1, i32 noundef %70)
  %72 = load ptr, ptr %5, align 8, !tbaa !90
  %73 = getelementptr inbounds nuw %struct.RecordIndex, ptr %72, i32 0, i32 7
  store i32 %71, ptr %73, align 4, !tbaa !98
  %74 = load i32, ptr %7, align 4, !tbaa !9
  %75 = icmp eq i32 %74, 0
  br i1 %75, label %81, label %76

76:                                               ; preds = %67
  %77 = load ptr, ptr %5, align 8, !tbaa !90
  %78 = getelementptr inbounds nuw %struct.RecordIndex, ptr %77, i32 0, i32 11
  %79 = load i32, ptr %78, align 4, !tbaa !100
  %80 = icmp ne i32 %79, 0
  br i1 %80, label %81, label %84

81:                                               ; preds = %76, %67
  %82 = load ptr, ptr %5, align 8, !tbaa !90
  %83 = getelementptr inbounds nuw %struct.RecordIndex, ptr %82, i32 0, i32 8
  store i32 32767, ptr %83, align 8, !tbaa !99
  store i32 1, ptr %3, align 4
  store i32 1, ptr %11, align 4
  br label %91

84:                                               ; preds = %76
  %85 = load ptr, ptr %4, align 8, !tbaa !4
  %86 = load i32, ptr %9, align 4, !tbaa !9
  %87 = load i32, ptr %8, align 4, !tbaa !9
  %88 = call i32 @lj_record_vload(ptr noundef %85, i32 noundef %86, i32 noundef 0, i32 noundef %87)
  %89 = load ptr, ptr %5, align 8, !tbaa !90
  %90 = getelementptr inbounds nuw %struct.RecordIndex, ptr %89, i32 0, i32 8
  store i32 %88, ptr %90, align 8, !tbaa !99
  store i32 2, ptr %3, align 4
  store i32 1, ptr %11, align 4
  br label %91

91:                                               ; preds = %84, %81
  call void @llvm.lifetime.end.p0(i64 4, ptr %9) #9
  call void @llvm.lifetime.end.p0(i64 4, ptr %8) #9
  call void @llvm.lifetime.end.p0(i64 4, ptr %7) #9
  call void @llvm.lifetime.end.p0(i64 4, ptr %6) #9
  %92 = load i32, ptr %3, align 4
  ret i32 %92
}