; Function Attrs: nounwind uwtable
define hidden range(i32 1, 3) i32 @lj_record_next(ptr noundef %0, ptr noundef captures(none) %1) local_unnamed_addr #0 {
  %3 = load i64, ptr %1, align 8, !tbaa !4
  %4 = and i64 %3, 140737488355327
  %5 = inttoptr i64 %4 to ptr
  %6 = getelementptr inbounds nuw i8, ptr %1, i64 8
  %7 = load i32, ptr %6, align 8, !tbaa !4
  %8 = getelementptr inbounds nuw i8, ptr %5, i64 48
  %9 = load i32, ptr %8, align 8, !tbaa !87
  %10 = icmp ult i32 %7, %9
  br i1 %10, label %.lr.ph.i, label %._crit_edge.i

.lr.ph.i:                                         ; preds = %2
  %11 = getelementptr inbounds nuw i8, ptr %5, i64 16
  %12 = load i64, ptr %11, align 8, !tbaa !93
  %13 = inttoptr i64 %12 to ptr
  %14 = zext i32 %7 to i64
  %wide.trip.count.i = zext i32 %9 to i64
  br label %15

15:                                               ; preds = %26, %.lr.ph.i
  %indvars.iv.i = phi i64 [ %14, %.lr.ph.i ], [ %indvars.iv.next.i, %26 ]
  %16 = getelementptr inbounds nuw %union.TValue, ptr %13, i64 %indvars.iv.i
  %17 = load i64, ptr %16, align 8, !tbaa !4
  %.not24.not.i = icmp eq i64 %17, -1
  br i1 %.not24.not.i, label %26, label %18, !prof !94

18:                                               ; preds = %15
  %19 = ashr i64 %17, 47
  %20 = icmp ult i64 %19, -14
  %21 = trunc nsw i64 %19 to i32
  %22 = xor i32 %21, -1
  %23 = shl nuw nsw i32 %22, 8
  %24 = or disjoint i32 %23, 14
  %25 = select i1 %20, i32 3598, i32 %24
  br label %rec_next_types.exit

26:                                               ; preds = %15
  %indvars.iv.next.i = add nuw nsw i64 %indvars.iv.i, 1
  %exitcond.not.i = icmp eq i64 %indvars.iv.next.i, %wide.trip.count.i
  br i1 %exitcond.not.i, label %._crit_edge.i, label %15, !llvm.loop !95

._crit_edge.i:                                    ; preds = %26, %2
  %.021.lcssa.i = phi i32 [ %7, %2 ], [ %9, %26 ]
  %27 = sub nuw i32 %.021.lcssa.i, %9
  %28 = getelementptr inbounds nuw i8, ptr %5, i64 52
  %29 = load i32, ptr %28, align 4, !tbaa !89
  %.not44.i = icmp ugt i32 %27, %29
  br i1 %.not44.i, label %rec_next_types.exit, label %.lr.ph47.i

.lr.ph47.i:                                       ; preds = %._crit_edge.i
  %30 = getelementptr inbounds nuw i8, ptr %5, i64 40
  %31 = load i64, ptr %30, align 8, !tbaa !90
  %32 = inttoptr i64 %31 to ptr
  br label %35

33:                                               ; preds = %35
  %34 = add i32 %.12245.i, 1
  %.not.i = icmp ugt i32 %34, %29
  br i1 %.not.i, label %rec_next_types.exit, label %35, !llvm.loop !96

35:                                               ; preds = %33, %.lr.ph47.i
  %.12245.i = phi i32 [ %27, %.lr.ph47.i ], [ %34, %33 ]
  %36 = zext i32 %.12245.i to i64
  %37 = getelementptr inbounds nuw %struct.Node, ptr %32, i64 %36
  %38 = load i64, ptr %37, align 8, !tbaa !4
  %.not36.i = icmp eq i64 %38, -1
  br i1 %.not36.i, label %33, label %39

39:                                               ; preds = %35
  %40 = getelementptr inbounds nuw i8, ptr %37, i64 8
  %41 = load i64, ptr %40, align 8, !tbaa !4
  %42 = ashr i64 %41, 47
  %43 = icmp ult i64 %42, -14
  %44 = trunc nsw i64 %42 to i32
  %45 = xor i32 %44, -1
  %.0.i27.i = select i1 %43, i32 14, i32 %45
  %46 = ashr i64 %38, 47
  %47 = icmp ult i64 %46, -14
  %48 = trunc nsw i64 %46 to i32
  %49 = xor i32 %48, -1
  %50 = shl nuw nsw i32 %49, 8
  %51 = select i1 %47, i32 3584, i32 %50
  %52 = or disjoint i32 %.0.i27.i, %51
  br label %rec_next_types.exit

rec_next_types.exit:                              ; preds = %33, %18, %._crit_edge.i, %39
  %.2.i = phi i32 [ %25, %18 ], [ %52, %39 ], [ 0, %._crit_edge.i ], [ 0, %33 ]
  %53 = and i32 %.2.i, 255
  %54 = lshr i32 %.2.i, 8
  %55 = getelementptr inbounds nuw i8, ptr %1, i64 48
  %56 = load i32, ptr %55, align 8, !tbaa !49
  %57 = getelementptr inbounds nuw i8, ptr %1, i64 52
  %58 = load i32, ptr %57, align 4, !tbaa !82
  %59 = tail call i32 (ptr, i32, ...) @lj_ir_call(ptr noundef %0, i32 noundef 37, i32 noundef %56, i32 noundef %58) #8
  %60 = getelementptr inbounds nuw i8, ptr %1, i64 64
  %61 = load i32, ptr %60, align 8, !tbaa !52
  %62 = icmp ne i32 %61, 0
  %63 = icmp eq i32 %53, 0
  %or.cond = select i1 %62, i1 true, i1 %63
  %64 = trunc i32 %59 to i16
  br i1 %or.cond, label %65, label %rec_next_types.exit._crit_edge

65:                                               ; preds = %rec_next_types.exit
  %66 = getelementptr inbounds nuw i8, ptr %0, i64 184
  %67 = getelementptr inbounds nuw i8, ptr %0, i64 188
  store i16 4115, ptr %67, align 4, !tbaa !4
  store i16 %64, ptr %66, align 8, !tbaa !4
  %68 = getelementptr inbounds nuw i8, ptr %0, i64 186
  store i16 %64, ptr %68, align 2, !tbaa !4
  %69 = tail call i32 @lj_opt_fold(ptr noundef %0) #8
  %70 = load i32, ptr %60, align 8, !tbaa !52
  %.not = icmp eq i32 %70, 0
  br i1 %.not, label %71, label %76

71:                                               ; preds = %65
  %72 = trunc i32 %69 to i16
  %73 = tail call i32 @lj_ir_kint(ptr noundef nonnull %0, i32 noundef -1) #8
  %74 = trunc i32 %73 to i16
  store i16 2451, ptr %67, align 4, !tbaa !4
  store i16 %72, ptr %66, align 8, !tbaa !4
  store i16 %74, ptr %68, align 2, !tbaa !4
  %75 = tail call i32 @lj_opt_fold(ptr noundef nonnull %0) #8
  br label %76

76:                                               ; preds = %71, %65
  store i32 %69, ptr %60, align 8, !tbaa !52
  br label %rec_next_types.exit._crit_edge

rec_next_types.exit._crit_edge:                   ; preds = %rec_next_types.exit, %76
  %77 = trunc nuw nsw i32 %53 to i16
  %78 = or i16 %77, 18560
  %79 = getelementptr inbounds nuw i8, ptr %0, i64 184
  %80 = getelementptr inbounds nuw i8, ptr %0, i64 188
  store i16 %78, ptr %80, align 4, !tbaa !4
  store i16 %64, ptr %79, align 8, !tbaa !4
  %81 = getelementptr inbounds nuw i8, ptr %0, i64 186
  store i16 1, ptr %81, align 2, !tbaa !4
  %82 = tail call i32 @lj_opt_fold(ptr noundef %0) #8
  %83 = icmp samesign ult i32 %53, 3
  %reass.sub.i = mul nuw nsw i32 %53, 16777215
  %84 = add nuw nsw i32 %reass.sub.i, 32767
  %.0.i = select i1 %83, i32 %84, i32 %82
  store i32 %.0.i, ptr %57, align 4, !tbaa !82
  br i1 %63, label %94, label %85

85:                                               ; preds = %rec_next_types.exit._crit_edge
  %86 = getelementptr inbounds nuw i8, ptr %1, i64 68
  %87 = load i32, ptr %86, align 4, !tbaa !84
  %.not32 = icmp eq i32 %87, 0
  br i1 %.not32, label %88, label %94

88:                                               ; preds = %85
  %89 = trunc i32 %54 to i16
  %90 = or i16 %89, 18560
  store i16 %90, ptr %80, align 4, !tbaa !4
  store i16 %64, ptr %79, align 8, !tbaa !4
  store i16 0, ptr %81, align 2, !tbaa !4
  %91 = tail call i32 @lj_opt_fold(ptr noundef nonnull %0) #8
  %92 = icmp ult i32 %.2.i, 768
  %reass.sub.i33 = mul nuw nsw i32 %54, 16777215
  %93 = add nuw nsw i32 %reass.sub.i33, 32767
  %.0.i34 = select i1 %92, i32 %93, i32 %91
  br label %94

94:                                               ; preds = %rec_next_types.exit._crit_edge, %85, %88
  %.0.i34.sink = phi i32 [ %.0.i34, %88 ], [ 32767, %85 ], [ 32767, %rec_next_types.exit._crit_edge ]
  %.0 = phi i32 [ 2, %88 ], [ 1, %85 ], [ 1, %rec_next_types.exit._crit_edge ]
  %95 = getelementptr inbounds nuw i8, ptr %1, i64 56
  store i32 %.0.i34.sink, ptr %95, align 8, !tbaa !83
  ret i32 %.0
}